; Function Attrs: mustprogress uwtable
define noundef ptr @_ZNK6icu_7517TZDBTimeZoneNames5cloneEv(ptr noundef nonnull align 8 dereferenceable(236) %this) unnamed_addr #1 align 2 personality ptr @__gxx_personality_v0 {
entry:
  %call = tail call noundef ptr @_ZN6icu_757UMemorynwEm(i64 noundef 240) #20
  %new.isnull = icmp eq ptr %call, null
  br i1 %new.isnull, label %new.cont, label %new.notnull

new.notnull:                                      ; preds = %entry
  %fLocale = getelementptr inbounds i8, ptr %this, i64 8
  invoke void @_ZN6icu_7517TZDBTimeZoneNamesC1ERKNS_6LocaleE(ptr noundef nonnull align 8 dereferenceable(236) %call, ptr noundef nonnull align 8 dereferenceable(217) %fLocale)
          to label %new.cont unwind label %lpad

new.cont:                                         ; preds = %new.notnull, %entry
  ret ptr %call

lpad:                                             ; preds = %new.notnull
  %0 = landingpad { ptr, i32 }
          cleanup
  tail call void @_ZN6icu_757UMemorydlEPv(ptr noundef nonnull %call) #20
  resume { ptr, i32 } %0
}